; Function Attrs: mustprogress uwtable
define void @_ZN16PickPointsDialog25tryLoadingDefaultTemplateEv(ptr noundef nonnull align 8 dereferenceable(464) %0) local_unnamed_addr #9 align 2 personality ptr @__gxx_personality_v0 {
  %2 = alloca %class.QString, align 8
  %3 = alloca %class.QFile, align 8
  %4 = alloca %class.QString, align 8
  call void @_ZN18PickPointsTemplate26getDefaultTemplateFileNameEv(ptr dead_on_unwind nonnull writable sret(%class.QString) align 8 %2)
  invoke void @_ZN5QFileC1ERK7QString(ptr noundef nonnull align 8 dereferenceable(16) %3, ptr noundef nonnull align 8 dereferenceable(8) %2)
          to label %5 unwind label %19

5:                                                ; preds = %1
  %6 = invoke noundef zeroext i1 @_ZNK5QFile6existsEv(ptr noundef nonnull align 8 dereferenceable(16) %3)
          to label %7 unwind label %21

7:                                                ; preds = %5
  br i1 %6, label %8, label %_ZN7QStringD2Ev.exit

8:                                                ; preds = %7
  %9 = load ptr, ptr %2, align 8
  store ptr %9, ptr %4, align 8
  %10 = load atomic i32, ptr %9 monotonic, align 4
  %11 = add i32 %10, -1
  %or.cond.not.i.i = icmp ult i32 %11, -2
  br i1 %or.cond.not.i.i, label %12, label %_ZN7QStringC2ERKS_.exit

12:                                               ; preds = %8
  %13 = atomicrmw add ptr %9, i32 1 seq_cst, align 4
  br label %_ZN7QStringC2ERKS_.exit

_ZN7QStringC2ERKS_.exit:                          ; preds = %8, %12
  invoke void @_ZN16PickPointsDialog22loadPickPointsTemplateE7QString(ptr noundef nonnull align 8 dereferenceable(464) %0, ptr noundef nonnull %4)
          to label %14 unwind label %23

14:                                               ; preds = %_ZN7QStringC2ERKS_.exit
  %15 = load ptr, ptr %4, align 8
  %16 = load atomic i32, ptr %15 monotonic, align 4
  switch i32 %16, label %_ZN9QtPrivate8RefCount5derefEv.exit.i [
    i32 0, label %_ZN9QtPrivate8RefCount5derefEv.exit.thread2.i
    i32 -1, label %_ZN7QStringD2Ev.exit
  ]

_ZN9QtPrivate8RefCount5derefEv.exit.i:            ; preds = %14
  %17 = atomicrmw sub ptr %15, i32 1 seq_cst, align 4
  %.not.i = icmp eq i32 %17, 1
  br i1 %.not.i, label %_ZN9QtPrivate8RefCount5derefEv.exit._ZN9QtPrivate8RefCount5derefEv.exit.thread2_crit_edge.i, label %_ZN7QStringD2Ev.exit

_ZN9QtPrivate8RefCount5derefEv.exit._ZN9QtPrivate8RefCount5derefEv.exit.thread2_crit_edge.i: ; preds = %_ZN9QtPrivate8RefCount5derefEv.exit.i
  %.pre.i = load ptr, ptr %4, align 8
  br label %_ZN9QtPrivate8RefCount5derefEv.exit.thread2.i

_ZN9QtPrivate8RefCount5derefEv.exit.thread2.i:    ; preds = %_ZN9QtPrivate8RefCount5derefEv.exit._ZN9QtPrivate8RefCount5derefEv.exit.thread2_crit_edge.i, %14
  %18 = phi ptr [ %.pre.i, %_ZN9QtPrivate8RefCount5derefEv.exit._ZN9QtPrivate8RefCount5derefEv.exit.thread2_crit_edge.i ], [ %15, %14 ]
  call void @_ZN10QArrayData10deallocateEPS_mm(ptr noundef %18, i64 noundef 2, i64 noundef 8) #27
  br label %_ZN7QStringD2Ev.exit

19:                                               ; preds = %1
  %20 = landingpad { ptr, i32 }
          cleanup
  br label %31

21:                                               ; preds = %_ZN7QStringD2Ev.exit, %5
  %22 = landingpad { ptr, i32 }
          cleanup
  br label %30

23:                                               ; preds = %_ZN7QStringC2ERKS_.exit
  %24 = landingpad { ptr, i32 }
          cleanup
  call void @_ZN7QStringD2Ev(ptr noundef nonnull align 8 dereferenceable(8) %4) #27
  br label %30

_ZN7QStringD2Ev.exit:                             ; preds = %_ZN9QtPrivate8RefCount5derefEv.exit.thread2.i, %_ZN9QtPrivate8RefCount5derefEv.exit.i, %14, %7
  invoke void @_ZN16PickPointsDialog11clearPointsEb(ptr noundef nonnull align 8 dereferenceable(464) %0, i1 noundef zeroext true)
          to label %25 unwind label %21

25:                                               ; preds = %_ZN7QStringD2Ev.exit
  call void @_ZN5QFileD1Ev(ptr noundef nonnull align 8 dereferenceable(16) %3) #27
  %26 = load ptr, ptr %2, align 8
  %27 = load atomic i32, ptr %26 monotonic, align 4
  switch i32 %27, label %_ZN9QtPrivate8RefCount5derefEv.exit.i7 [
    i32 0, label %_ZN9QtPrivate8RefCount5derefEv.exit.thread2.i6
    i32 -1, label %_ZN7QStringD2Ev.exit11
  ]

_ZN9QtPrivate8RefCount5derefEv.exit.i7:           ; preds = %25
  %28 = atomicrmw sub ptr %26, i32 1 seq_cst, align 4
  %.not.i8 = icmp eq i32 %28, 1
  br i1 %.not.i8, label %_ZN9QtPrivate8RefCount5derefEv.exit._ZN9QtPrivate8RefCount5derefEv.exit.thread2_crit_edge.i9, label %_ZN7QStringD2Ev.exit11

_ZN9QtPrivate8RefCount5derefEv.exit._ZN9QtPrivate8RefCount5derefEv.exit.thread2_crit_edge.i9: ; preds = %_ZN9QtPrivate8RefCount5derefEv.exit.i7
  %.pre.i10 = load ptr, ptr %2, align 8
  br label %_ZN9QtPrivate8RefCount5derefEv.exit.thread2.i6

_ZN9QtPrivate8RefCount5derefEv.exit.thread2.i6:   ; preds = %_ZN9QtPrivate8RefCount5derefEv.exit._ZN9QtPrivate8RefCount5derefEv.exit.thread2_crit_edge.i9, %25
  %29 = phi ptr [ %.pre.i10, %_ZN9QtPrivate8RefCount5derefEv.exit._ZN9QtPrivate8RefCount5derefEv.exit.thread2_crit_edge.i9 ], [ %26, %25 ]
  call void @_ZN10QArrayData10deallocateEPS_mm(ptr noundef %29, i64 noundef 2, i64 noundef 8) #27
  br label %_ZN7QStringD2Ev.exit11

_ZN7QStringD2Ev.exit11:                           ; preds = %25, %_ZN9QtPrivate8RefCount5derefEv.exit.i7, %_ZN9QtPrivate8RefCount5derefEv.exit.thread2.i6
  ret void

30:                                               ; preds = %23, %21
  %.pn = phi { ptr, i32 } [ %22, %21 ], [ %24, %23 ]
  call void @_ZN5QFileD1Ev(ptr noundef nonnull align 8 dereferenceable(16) %3) #27
  br label %31

31:                                               ; preds = %30, %19
  %.pn.pn = phi { ptr, i32 } [ %.pn, %30 ], [ %20, %19 ]
  call void @_ZN7QStringD2Ev(ptr noundef nonnull align 8 dereferenceable(8) %2) #27
  resume { ptr, i32 } %.pn.pn
}